; Function Attrs: nounwind uwtable
define ptr @l_Array_mapMUnsafe_map___at_Lake_PartialBuildKey_toLean_mkSuffixes___spec__1(i64 noundef %0, i64 noundef %1, ptr noundef %2) local_unnamed_addr #0 {
  %.not43 = icmp ult i64 %1, %0
  br i1 %.not43, label %.lr.ph, label %._crit_edge

.lr.ph:                                           ; preds = %3, %51
  %.02245 = phi i64 [ %35, %51 ], [ %1, %3 ]
  %.02444 = phi ptr [ %.0.i.i32, %51 ], [ %2, %3 ]
  %4 = getelementptr inbounds nuw i8, ptr %.02444, i64 24
  %5 = getelementptr inbounds nuw [0 x ptr], ptr %4, i64 0, i64 %.02245
  %6 = load ptr, ptr %5, align 8, !tbaa !12
  %7 = ptrtoint ptr %6 to i64
  %8 = and i64 %7, 1
  %.not.i = icmp eq i64 %8, 0
  br i1 %.not.i, label %9, label %lean_array_uget.exit

9:                                                ; preds = %.lr.ph
  %.val.i.i = load i32, ptr %6, align 4, !tbaa !8
  %10 = icmp sgt i32 %.val.i.i, 0
  br i1 %10, label %11, label %13, !prof !11

11:                                               ; preds = %9
  %12 = add nuw i32 %.val.i.i, 1
  store i32 %12, ptr %6, align 4, !tbaa !8
  br label %lean_array_uget.exit

13:                                               ; preds = %9
  %.not.i.i = icmp eq i32 %.val.i.i, 0
  br i1 %.not.i.i, label %lean_array_uget.exit, label %14

14:                                               ; preds = %13
  tail call void @lean_inc_ref_cold(ptr noundef nonnull %6) #6
  br label %lean_array_uget.exit

lean_array_uget.exit:                             ; preds = %.lr.ph, %11, %13, %14
  %.val.i.i27 = load i32, ptr %.02444, align 4, !tbaa !8
  %15 = icmp eq i32 %.val.i.i27, 1
  br i1 %15, label %lean_ensure_exclusive_array.exit.i, label %16

16:                                               ; preds = %lean_array_uget.exit
  %17 = tail call ptr @lean_copy_expand_array(ptr noundef nonnull %.02444, i1 noundef zeroext false) #6
  br label %lean_ensure_exclusive_array.exit.i

lean_ensure_exclusive_array.exit.i:               ; preds = %16, %lean_array_uget.exit
  %.0.i.i = phi ptr [ %17, %16 ], [ %.02444, %lean_array_uget.exit ]
  %18 = getelementptr inbounds nuw i8, ptr %.0.i.i, i64 24
  %19 = getelementptr inbounds nuw ptr, ptr %18, i64 %.02245
  %20 = load ptr, ptr %19, align 8, !tbaa !12
  %21 = ptrtoint ptr %20 to i64
  %22 = and i64 %21, 1
  %.not.i28 = icmp eq i64 %22, 0
  br i1 %.not.i28, label %23, label %lean_array_uset.exit

23:                                               ; preds = %lean_ensure_exclusive_array.exit.i
  %24 = load i32, ptr %20, align 4, !tbaa !8
  %25 = icmp sgt i32 %24, 1
  br i1 %25, label %26, label %28, !prof !11

26:                                               ; preds = %23
  %27 = add nsw i32 %24, -1
  store i32 %27, ptr %20, align 4, !tbaa !8
  br label %lean_array_uset.exit

28:                                               ; preds = %23
  %.not.i.i29 = icmp eq i32 %24, 0
  br i1 %.not.i.i29, label %lean_array_uset.exit, label %29

29:                                               ; preds = %28
  tail call void @lean_dec_ref_cold(ptr noundef nonnull %20) #6
  br label %lean_array_uset.exit

lean_array_uset.exit:                             ; preds = %lean_ensure_exclusive_array.exit.i, %26, %28, %29
  store ptr inttoptr (i64 1 to ptr), ptr %19, align 8, !tbaa !12
  %30 = tail call ptr @lean_mk_syntax_ident(ptr noundef %6) #6
  %31 = load ptr, ptr @l_Lake_instToLeanArrayMkStr1___rarg___closed__1, align 8, !tbaa !12
  %32 = load ptr, ptr @l_Array_mapMUnsafe_map___at_Lake_PartialBuildKey_toLean_mkSuffixes___spec__1___closed__2, align 8, !tbaa !12
  %33 = load ptr, ptr @l_Array_mapMUnsafe_map___at_Lake_PartialBuildKey_toLean_mkSuffixes___spec__1___closed__4, align 8, !tbaa !12
  %34 = tail call ptr @l_Lean_Syntax_node2(ptr noundef %31, ptr noundef %32, ptr noundef %33, ptr noundef %30) #6
  %35 = add nuw i64 %.02245, 1
  %.val.i.i30 = load i32, ptr %.0.i.i, align 4, !tbaa !8
  %36 = icmp eq i32 %.val.i.i30, 1
  br i1 %36, label %lean_ensure_exclusive_array.exit.i31, label %37

37:                                               ; preds = %lean_array_uset.exit
  %38 = tail call ptr @lean_copy_expand_array(ptr noundef nonnull %.0.i.i, i1 noundef zeroext false) #6
  br label %lean_ensure_exclusive_array.exit.i31

lean_ensure_exclusive_array.exit.i31:             ; preds = %37, %lean_array_uset.exit
  %.0.i.i32 = phi ptr [ %38, %37 ], [ %.0.i.i, %lean_array_uset.exit ]
  %39 = getelementptr inbounds nuw i8, ptr %.0.i.i32, i64 24
  %40 = getelementptr inbounds nuw ptr, ptr %39, i64 %.02245
  %41 = load ptr, ptr %40, align 8, !tbaa !12
  %42 = ptrtoint ptr %41 to i64
  %43 = and i64 %42, 1
  %.not.i33 = icmp eq i64 %43, 0
  br i1 %.not.i33, label %44, label %51

44:                                               ; preds = %lean_ensure_exclusive_array.exit.i31
  %45 = load i32, ptr %41, align 4, !tbaa !8
  %46 = icmp sgt i32 %45, 1
  br i1 %46, label %47, label %49, !prof !11

47:                                               ; preds = %44
  %48 = add nsw i32 %45, -1
  store i32 %48, ptr %41, align 4, !tbaa !8
  br label %51

49:                                               ; preds = %44
  %.not.i.i34 = icmp eq i32 %45, 0
  br i1 %.not.i.i34, label %51, label %50

50:                                               ; preds = %49
  tail call void @lean_dec_ref_cold(ptr noundef nonnull %41) #6
  br label %51

51:                                               ; preds = %50, %49, %47, %lean_ensure_exclusive_array.exit.i31
  store ptr %34, ptr %40, align 8, !tbaa !12
  %exitcond.not = icmp eq i64 %35, %0
  br i1 %exitcond.not, label %._crit_edge, label %.lr.ph

._crit_edge:                                      ; preds = %51, %3
  %.024.lcssa = phi ptr [ %2, %3 ], [ %.0.i.i32, %51 ]
  ret ptr %.024.lcssa
}